target datalayout = "e-m:e-p270:32:32-p271:32:32-p272:64:64-i64:64-i128:128-f80:128-n8:16:32:64-S128"
target triple = "x86_64-pc-linux-gnu"

@AlwaysRecordEvolDependencies = external global i8, align 1
@_ZN11JvmtiExport31_can_hotswap_or_post_breakpointE = external global i8, align 1
@_ZN11JvmtiExport30_all_dependencies_are_recordedE = external global i8, align 1

; Function Attrs: mustprogress nounwind uwtable
define linkonce_odr hidden void @_ZN11JvmtiExport33set_all_dependencies_are_recordedEb(i1 noundef zeroext %0) #1 comdat align 2 {
  %2 = alloca i8, align 1
  %3 = zext i1 %0 to i8
  store i8 %3, ptr %2, align 1
  %4 = load i8, ptr %2, align 1
  %5 = trunc i8 %4 to i1
  %6 = zext i1 %5 to i32
  %7 = icmp ne i32 %6, 0
  %8 = zext i1 %7 to i8
  store i8 %8, ptr @_ZN11JvmtiExport30_all_dependencies_are_recordedE, align 1
  ret void
}

; Function Attrs: mustprogress nounwind uwtable
define linkonce_odr hidden void @_ZN11JvmtiExport34set_can_hotswap_or_post_breakpointEb(i1 noundef zeroext %0) #1 comdat align 2 {
  %2 = alloca i8, align 1
  %3 = zext i1 %0 to i8
  store i8 %3, ptr %2, align 1
  %4 = load i8, ptr %2, align 1
  %5 = trunc i8 %4 to i1
  %6 = zext i1 %5 to i32
  %7 = icmp ne i32 %6, 0
  %8 = zext i1 %7 to i8
  store i8 %8, ptr @_ZN11JvmtiExport31_can_hotswap_or_post_breakpointE, align 1
  ret void
}

; Function Attrs: mustprogress nounwind uwtable
define hidden noundef i32 @_Z12init_globalsv() #1 {
  %1 = alloca i32, align 4
  %2 = alloca i32, align 4
  call void @_Z15management_initv()
  call void @_ZN11JvmtiExport22initialize_oop_storageEv()
  %3 = load i8, ptr @AlwaysRecordEvolDependencies, align 1
  %4 = trunc i8 %3 to i1
  br i1 %4, label %5, label %6

5:                                                ; preds = %0
  call void @_ZN11JvmtiExport34set_can_hotswap_or_post_breakpointEb(i1 noundef zeroext true)
  call void @_ZN11JvmtiExport33set_all_dependencies_are_recordedEb(i1 noundef zeroext true)
  br label %6

6:                                                ; preds = %5, %0
  call void @_Z14bytecodes_initv()
  call void @_Z17classLoader_init1v()
  call void @_Z22compilationPolicy_initv()
  call void @_Z14codeCache_initv()
  call void @_Z15VM_Version_initv()
  call void @_Z18initial_stubs_initv()
  %7 = call noundef i32 @_Z13universe_initv()
  store i32 %7, ptr %2, align 4
  %8 = load i32, ptr %2, align 4
  %9 = icmp ne i32 %8, 0
  br i1 %9, label %10, label %12

10:                                               ; preds = %6
  %11 = load i32, ptr %2, align 4
  store i32 %11, ptr %1, align 4
  br label %13

12:                                               ; preds = %6
  call void @_ZN14AsyncLogWriter10initializeEv()
  call void @_Z21gc_barrier_stubs_initv()
  call void @_Z18continuations_initv()
  call void @_Z23continuation_stubs_initv()
  call void @_Z21interpreter_init_stubv()
  call void @_Z16accessFlags_initv()
  call void @_Z21InterfaceSupport_initv()
  call void @_ZN9VMRegImpl11set_regNameEv()
  call void @_ZN13SharedRuntime14generate_stubsEv()
  store i32 0, ptr %1, align 4
  br label %13

13:                                               ; preds = %12, %10
  %14 = load i32, ptr %1, align 4
  ret i32 %14
}