; Function Attrs: mustprogress nounwind uwtable
define hidden noundef i32 @_Z12init_globalsv() local_unnamed_addr #1 {
  tail call void @_Z15management_initv() #4
  tail call void @_ZN11JvmtiExport22initialize_oop_storageEv() #4
  %1 = load i8, ptr @AlwaysRecordEvolDependencies, align 1
  %2 = trunc i8 %1 to i1
  br i1 %2, label %3, label %4

3:                                                ; preds = %0
  store i8 1, ptr @_ZN11JvmtiExport31_can_hotswap_or_post_breakpointE, align 1
  store i8 1, ptr @_ZN11JvmtiExport30_all_dependencies_are_recordedE, align 1
  br label %4

4:                                                ; preds = %3, %0
  tail call void @_Z14bytecodes_initv() #4
  tail call void @_Z17classLoader_init1v() #4
  tail call void @_Z22compilationPolicy_initv() #4
  tail call void @_Z14codeCache_initv() #4
  tail call void @_Z15VM_Version_initv() #4
  tail call void @_Z18initial_stubs_initv() #4
  %5 = tail call noundef i32 @_Z13universe_initv() #4
  %.not = icmp eq i32 %5, 0
  br i1 %.not, label %6, label %7

6:                                                ; preds = %4
  tail call void @_ZN14AsyncLogWriter10initializeEv() #4
  tail call void @_Z21gc_barrier_stubs_initv() #4
  tail call void @_Z18continuations_initv() #4
  tail call void @_Z23continuation_stubs_initv() #4
  tail call void @_Z21interpreter_init_stubv() #4
  tail call void @_Z16accessFlags_initv() #4
  tail call void @_Z21InterfaceSupport_initv() #4
  tail call void @_ZN9VMRegImpl11set_regNameEv() #4
  tail call void @_ZN13SharedRuntime14generate_stubsEv() #4
  br label %7

7:                                                ; preds = %4, %6
  ret i32 %5
}